; Function Attrs: null_pointer_is_valid sspstrong uwtable
define internal void @rtps_psk_options_free_entry(ptr noundef captures(none) %0) #0 {
  %2 = load ptr, ptr %0, align 8
  tail call void @g_free(ptr noundef %2)
  store ptr null, ptr %0, align 8
  %3 = getelementptr inbounds nuw i8, ptr %0, i64 8
  %4 = load ptr, ptr %3, align 8
  tail call void @g_free(ptr noundef %4)
  store ptr null, ptr %3, align 8
  %5 = getelementptr inbounds nuw i8, ptr %0, i64 24
  %6 = load ptr, ptr %5, align 8
  tail call void @g_free(ptr noundef %6)
  store ptr null, ptr %5, align 8
  %7 = getelementptr inbounds nuw i8, ptr %0, i64 40
  %8 = load ptr, ptr %7, align 8
  tail call void @g_free(ptr noundef %8)
  store ptr null, ptr %7, align 8
  %9 = getelementptr inbounds nuw i8, ptr %0, i64 56
  %10 = load ptr, ptr %9, align 8
  tail call void @g_free(ptr noundef %10)
  store ptr null, ptr %9, align 8
  ret void
}